; Function Attrs: mustprogress uwtable
define hidden noundef zeroext i1 @_ZN5ceres8internal7Program41SetParameterBlockStatePtrsToUserStatePtrsEv(ptr noundef nonnull readonly align 8 captures(none) dereferenceable(56) %0) local_unnamed_addr #6 align 2 {
  %2 = load ptr, ptr %0, align 8, !tbaa !19
  %3 = getelementptr inbounds nuw i8, ptr %0, i64 8
  %4 = load ptr, ptr %3, align 8, !tbaa !19
  %.not13 = icmp eq ptr %2, %4
  br i1 %.not13, label %._crit_edge, label %.lr.ph

.lr.ph:                                           ; preds = %1, %.critedge
  %.sroa.010.014 = phi ptr [ %26, %.critedge ], [ %2, %1 ]
  %5 = load ptr, ptr %.sroa.010.014, align 8, !tbaa !20
  %6 = getelementptr inbounds nuw i8, ptr %5, i64 12
  %7 = load i8, ptr %6, align 4, !tbaa !22, !range !41, !noundef !42
  %8 = trunc nuw i8 %7 to i1
  br i1 %8, label %.critedge, label %9

9:                                                ; preds = %.lr.ph
  %10 = getelementptr inbounds nuw i8, ptr %5, i64 16
  %11 = load ptr, ptr %10, align 8, !tbaa !43
  %12 = icmp eq ptr %11, null
  br i1 %12, label %13, label %16

13:                                               ; preds = %9
  %14 = getelementptr inbounds nuw i8, ptr %5, i64 8
  %15 = load i32, ptr %14, align 8, !tbaa !44
  br label %_ZNK5ceres8internal14ParameterBlock10IsConstantEv.exit

16:                                               ; preds = %9
  %17 = load ptr, ptr %11, align 8, !tbaa !45
  %18 = getelementptr inbounds nuw i8, ptr %17, i64 24
  %19 = load ptr, ptr %18, align 8
  %20 = tail call noundef i32 %19(ptr noundef nonnull align 8 dereferenceable(8) %11)
  br label %_ZNK5ceres8internal14ParameterBlock10IsConstantEv.exit

_ZNK5ceres8internal14ParameterBlock10IsConstantEv.exit: ; preds = %13, %16
  %21 = phi i32 [ %15, %13 ], [ %20, %16 ]
  %22 = icmp eq i32 %21, 0
  br i1 %22, label %.critedge, label %23

23:                                               ; preds = %_ZNK5ceres8internal14ParameterBlock10IsConstantEv.exit
  %24 = load ptr, ptr %5, align 8, !tbaa !51
  %25 = tail call noundef zeroext i1 @_ZN5ceres8internal14ParameterBlock8SetStateEPKd(ptr noundef nonnull align 8 dereferenceable(80) %5, ptr noundef %24)
  br i1 %25, label %.critedge, label %._crit_edge

.critedge:                                        ; preds = %.lr.ph, %23, %_ZNK5ceres8internal14ParameterBlock10IsConstantEv.exit
  %26 = getelementptr inbounds nuw i8, ptr %.sroa.010.014, i64 8
  %.not = icmp eq ptr %26, %4
  br i1 %.not, label %._crit_edge, label %.lr.ph

._crit_edge:                                      ; preds = %.critedge, %23, %1
  %.not.lcssa = phi i1 [ true, %1 ], [ false, %23 ], [ true, %.critedge ]
  ret i1 %.not.lcssa
}